; Function Attrs: mustprogress uwtable
define internal void @_ZNSt17_Function_handlerIFvRN12_GLOBAL__N_113test_pmgen_pmESt8functionIFvvEEEZNS0_13TestPmgenPass16execute_generateESt6vectorINSt7__cxx1112basic_stringIcSt11char_traitsIcESaIcEEESaISE_EEPN5Yosys5RTLIL6DesignEEUlS2_S5_E0_E9_M_invokeERKSt9_Any_dataS2_OS5_(ptr nonnull readnone align 8 captures(none) %0, ptr noundef nonnull align 8 dereferenceable(1212) %1, ptr noundef nonnull align 8 captures(none) dereferenceable(32) %2) #5 align 2 personality ptr @__gxx_personality_v0 {
  %4 = alloca %"class.std::function", align 8
  %5 = alloca %"class.std::function", align 8
  call void @llvm.lifetime.start.p0(i64 32, ptr nonnull %5)
  %6 = getelementptr inbounds nuw i8, ptr %5, i64 24
  %7 = getelementptr inbounds nuw i8, ptr %2, i64 24
  call void @llvm.memset.p0.i64(ptr noundef nonnull align 8 dereferenceable(32) %5, i8 0, i64 24, i1 false)
  %8 = load ptr, ptr %7, align 8, !tbaa !41
  store ptr %8, ptr %6, align 8, !tbaa !41
  %9 = getelementptr inbounds nuw i8, ptr %2, i64 16
  %10 = load ptr, ptr %9, align 8, !tbaa !36
  %.not.i.i.not.i.i.i = icmp eq ptr %10, null
  br i1 %.not.i.i.not.i.i.i, label %_ZNSt8functionIFvvEEC2EOS1_.exit.thread.i.i, label %13

_ZNSt8functionIFvvEEC2EOS1_.exit.thread.i.i:      ; preds = %3
  call void @llvm.lifetime.start.p0(i64 32, ptr nonnull %4)
  %11 = getelementptr inbounds nuw i8, ptr %4, i64 16
  %12 = getelementptr inbounds nuw i8, ptr %5, i64 16
  call void @llvm.memset.p0.i64(ptr noundef nonnull align 8 dereferenceable(32) %4, i8 0, i64 32, i1 false)
  br label %_ZNSt8functionIFvvEEC2ERKS1_.exit.i.i.i

13:                                               ; preds = %3
  %14 = getelementptr inbounds nuw i8, ptr %5, i64 16
  call void @llvm.memcpy.p0.p0.i64(ptr noundef nonnull align 8 dereferenceable(32) %5, ptr noundef nonnull align 8 dereferenceable(32) %2, i64 16, i1 false), !tbaa.struct !691
  store ptr %10, ptr %14, align 8, !tbaa !36
  tail call void @llvm.memset.p0.i64(ptr noundef nonnull align 8 dereferenceable(16) %9, i8 0, i64 16, i1 false)
  call void @llvm.lifetime.start.p0(i64 32, ptr nonnull %4)
  %15 = getelementptr inbounds nuw i8, ptr %4, i64 16
  call void @llvm.memset.p0.i64(ptr noundef nonnull align 8 dereferenceable(32) %4, i8 0, i64 32, i1 false)
  %16 = invoke noundef zeroext i1 %10(ptr noundef nonnull align 8 dereferenceable(32) %4, ptr noundef nonnull align 8 dereferenceable(32) %5, i32 noundef 2)
          to label %17 unwind label %21

17:                                               ; preds = %13
  %18 = getelementptr inbounds nuw i8, ptr %4, i64 24
  %19 = load ptr, ptr %6, align 8, !tbaa !41
  store ptr %19, ptr %18, align 8, !tbaa !41
  %20 = load ptr, ptr %14, align 8, !tbaa !36
  store ptr %20, ptr %15, align 8, !tbaa !36
  br label %_ZNSt8functionIFvvEEC2ERKS1_.exit.i.i.i

21:                                               ; preds = %13
  %22 = landingpad { ptr, i32 }
          cleanup
  %23 = load ptr, ptr %15, align 8, !tbaa !36
  %.not.i.i.i.i.i = icmp eq ptr %23, null
  br i1 %.not.i.i.i.i.i, label %.body.i.i, label %24

24:                                               ; preds = %21
  %25 = invoke noundef zeroext i1 %23(ptr noundef nonnull align 8 dereferenceable(32) %4, ptr noundef nonnull align 8 dereferenceable(32) %4, i32 noundef 3)
          to label %.body.i.i unwind label %26

26:                                               ; preds = %24
  %27 = landingpad { ptr, i32 }
          catch ptr null
  %28 = extractvalue { ptr, i32 } %27, 0
  call void @__clang_call_terminate(ptr %28) #34
  unreachable

_ZNSt8functionIFvvEEC2ERKS1_.exit.i.i.i:          ; preds = %17, %_ZNSt8functionIFvvEEC2EOS1_.exit.thread.i.i
  %29 = phi ptr [ %12, %_ZNSt8functionIFvvEEC2EOS1_.exit.thread.i.i ], [ %14, %17 ]
  %30 = phi ptr [ %11, %_ZNSt8functionIFvvEEC2EOS1_.exit.thread.i.i ], [ %15, %17 ]
  invoke fastcc void @_ZN12_GLOBAL__N_113test_pmgen_pm10run_eqpmuxESt8functionIFvvEE(ptr noundef nonnull align 8 dereferenceable(1212) %1, ptr noundef %4)
          to label %31 unwind label %38

31:                                               ; preds = %_ZNSt8functionIFvvEEC2ERKS1_.exit.i.i.i
  %32 = load ptr, ptr %30, align 8, !tbaa !36
  %.not.i.i.i.i = icmp eq ptr %32, null
  br i1 %.not.i.i.i.i, label %46, label %33

33:                                               ; preds = %31
  %34 = invoke noundef zeroext i1 %32(ptr noundef nonnull align 8 dereferenceable(32) %4, ptr noundef nonnull align 8 dereferenceable(32) %4, i32 noundef 3)
          to label %46 unwind label %35

35:                                               ; preds = %33
  %36 = landingpad { ptr, i32 }
          catch ptr null
  %37 = extractvalue { ptr, i32 } %36, 0
  call void @__clang_call_terminate(ptr %37) #34
  unreachable

38:                                               ; preds = %_ZNSt8functionIFvvEEC2ERKS1_.exit.i.i.i
  %39 = landingpad { ptr, i32 }
          cleanup
  %40 = load ptr, ptr %30, align 8, !tbaa !36
  %.not.i2.i.i.i = icmp eq ptr %40, null
  br i1 %.not.i2.i.i.i, label %.body.i.i, label %41

41:                                               ; preds = %38
  %42 = invoke noundef zeroext i1 %40(ptr noundef nonnull align 8 dereferenceable(32) %4, ptr noundef nonnull align 8 dereferenceable(32) %4, i32 noundef 3)
          to label %.body.i.i unwind label %43

43:                                               ; preds = %41
  %44 = landingpad { ptr, i32 }
          catch ptr null
  %45 = extractvalue { ptr, i32 } %44, 0
  call void @__clang_call_terminate(ptr %45) #34
  unreachable

46:                                               ; preds = %33, %31
  call void @llvm.lifetime.end.p0(i64 32, ptr nonnull %4)
  %47 = load ptr, ptr %29, align 8, !tbaa !36
  %.not.i.i.i = icmp eq ptr %47, null
  br i1 %.not.i.i.i, label %_ZSt10__invoke_rIvRZN12_GLOBAL__N_113TestPmgenPass16execute_generateESt6vectorINSt7__cxx1112basic_stringIcSt11char_traitsIcESaIcEEESaIS8_EEPN5Yosys5RTLIL6DesignEEUlRNS0_13test_pmgen_pmESt8functionIFvvEEE0_JSG_SJ_EENSt9enable_ifIX16is_invocable_r_vIT_T0_DpT1_EESN_E4typeEOSO_DpOSP_.exit, label %48

48:                                               ; preds = %46
  %49 = invoke noundef zeroext i1 %47(ptr noundef nonnull align 8 dereferenceable(32) %5, ptr noundef nonnull align 8 dereferenceable(32) %5, i32 noundef 3)
          to label %_ZSt10__invoke_rIvRZN12_GLOBAL__N_113TestPmgenPass16execute_generateESt6vectorINSt7__cxx1112basic_stringIcSt11char_traitsIcESaIcEEESaIS8_EEPN5Yosys5RTLIL6DesignEEUlRNS0_13test_pmgen_pmESt8functionIFvvEEE0_JSG_SJ_EENSt9enable_ifIX16is_invocable_r_vIT_T0_DpT1_EESN_E4typeEOSO_DpOSP_.exit unwind label %50

50:                                               ; preds = %48
  %51 = landingpad { ptr, i32 }
          catch ptr null
  %52 = extractvalue { ptr, i32 } %51, 0
  call void @__clang_call_terminate(ptr %52) #34
  unreachable

.body.i.i:                                        ; preds = %41, %38, %24, %21
  %53 = phi ptr [ %14, %24 ], [ %14, %21 ], [ %29, %38 ], [ %29, %41 ]
  %eh.lpad-body.i.i = phi { ptr, i32 } [ %22, %24 ], [ %22, %21 ], [ %39, %38 ], [ %39, %41 ]
  %54 = load ptr, ptr %53, align 8, !tbaa !36
  %.not.i4.i.i = icmp eq ptr %54, null
  br i1 %.not.i4.i.i, label %_ZNSt14_Function_baseD2Ev.exit5.i.i, label %55

55:                                               ; preds = %.body.i.i
  %56 = invoke noundef zeroext i1 %54(ptr noundef nonnull align 8 dereferenceable(32) %5, ptr noundef nonnull align 8 dereferenceable(32) %5, i32 noundef 3)
          to label %_ZNSt14_Function_baseD2Ev.exit5.i.i unwind label %57

57:                                               ; preds = %55
  %58 = landingpad { ptr, i32 }
          catch ptr null
  %59 = extractvalue { ptr, i32 } %58, 0
  call void @__clang_call_terminate(ptr %59) #34
  unreachable

_ZNSt14_Function_baseD2Ev.exit5.i.i:              ; preds = %55, %.body.i.i
  resume { ptr, i32 } %eh.lpad-body.i.i

_ZSt10__invoke_rIvRZN12_GLOBAL__N_113TestPmgenPass16execute_generateESt6vectorINSt7__cxx1112basic_stringIcSt11char_traitsIcESaIcEEESaIS8_EEPN5Yosys5RTLIL6DesignEEUlRNS0_13test_pmgen_pmESt8functionIFvvEEE0_JSG_SJ_EENSt9enable_ifIX16is_invocable_r_vIT_T0_DpT1_EESN_E4typeEOSO_DpOSP_.exit: ; preds = %46, %48
  call void @llvm.lifetime.end.p0(i64 32, ptr nonnull %5)
  ret void
}